(dp1
S't_stds'
p2
(lp3
cnumpy.core.multiarray
scalar
p4
(cnumpy
dtype
p5
(S'f8'
I0
I1
tRp6
(I3
S'<'
NNNI-1
I-1
I0
tbS'r\x01g\nn\xaa\x05>'
tRp7
asS't_means'
p8
(lp9
g4
(g6
S'1\xd6R\xb40\x07\xed='
tRp10
asS'c_means'
p11
(lp12
g4
(g6
S'\nZ\xe3\xe4\xc7]\xd6A'
tRp13
as.